; Function Attrs: mustprogress uwtable
define noundef ptr @_ZNK9RBDataMap7getItemEPKcR10UErrorCode(ptr nocapture noundef nonnull readonly align 8 dereferenceable(16) %this, ptr noundef %key, ptr nocapture noundef nonnull align 4 dereferenceable(4) %status) unnamed_addr #4 align 2 personality ptr @__gxx_personality_v0 {
entry:
  %hashKey = alloca %"class.icu_75::UnicodeString", align 8
  %0 = load i32, ptr %status, align 4
  %cmp.i = icmp slt i32 %0, 1
  br i1 %cmp.i, label %if.end, label %return

if.end:                                           ; preds = %entry
  call void @_ZN6icu_7513UnicodeStringC1EPKciNS0_10EInvariantE(ptr noundef nonnull align 8 dereferenceable(64) %hashKey, ptr noundef %key, i32 noundef -1, i32 noundef 0)
  %fData = getelementptr inbounds i8, ptr %this, i64 8
  %1 = load ptr, ptr %fData, align 8
  %2 = load ptr, ptr %1, align 8
  %call.i3 = invoke noundef ptr @uhash_get_75(ptr noundef %2, ptr noundef nonnull %hashKey)
          to label %invoke.cont unwind label %lpad

invoke.cont:                                      ; preds = %if.end
  %cmp.not = icmp eq ptr %call.i3, null
  br i1 %cmp.not, label %if.else, label %cleanup

lpad:                                             ; preds = %if.end
  %3 = landingpad { ptr, i32 }
          cleanup
  call void @_ZN6icu_7513UnicodeStringD1Ev(ptr noundef nonnull align 8 dereferenceable(64) %hashKey) #15
  resume { ptr, i32 } %3

if.else:                                          ; preds = %invoke.cont
  store i32 2, ptr %status, align 4
  br label %cleanup

cleanup:                                          ; preds = %invoke.cont, %if.else
  call void @_ZN6icu_7513UnicodeStringD1Ev(ptr noundef nonnull align 8 dereferenceable(64) %hashKey) #15
  br label %return

return:                                           ; preds = %entry, %cleanup
  %retval.1 = phi ptr [ %call.i3, %cleanup ], [ null, %entry ]
  ret ptr %retval.1
}